target datalayout = "e-m:e-p270:32:32-p271:32:32-p272:64:64-i64:64-i128:128-f80:128-n8:16:32:64-S128"
target triple = "x86_64-pc-linux-gnu"

@hf_spnego_krb5_sgn_alg = internal global i32 0, align 4
@hf_spnego_krb5_snd_seq = internal global i32 0, align 4
@hf_spnego_krb5_sgn_cksum = internal global i32 0, align 4
@hf_spnego_krb5_confounder = internal global i32 0, align 4

; Function Attrs: nounwind uwtable
define internal i32 @dissect_spnego_krb5_getmic_base(ptr noundef %0, i32 noundef %1, ptr noundef %2, ptr noundef %3) #0 {
  %5 = alloca ptr, align 8
  %6 = alloca i32, align 4
  %7 = alloca ptr, align 8
  %8 = alloca ptr, align 8
  %9 = alloca i16, align 2
  store ptr %0, ptr %5, align 8
  store i32 %1, ptr %6, align 4
  store ptr %2, ptr %7, align 8
  store ptr %3, ptr %8, align 8
  %10 = load ptr, ptr %5, align 8
  %11 = load i32, ptr %6, align 4
  %12 = call zeroext i16 @tvb_get_letohs(ptr noundef %10, i32 noundef %11)
  store i16 %12, ptr %9, align 2
  %13 = load ptr, ptr %8, align 8
  %14 = load i32, ptr @hf_spnego_krb5_sgn_alg, align 4
  %15 = load ptr, ptr %5, align 8
  %16 = load i32, ptr %6, align 4
  %17 = load i16, ptr %9, align 2
  %18 = zext i16 %17 to i32
  %19 = call ptr @proto_tree_add_uint(ptr noundef %13, i32 noundef %14, ptr noundef %15, i32 noundef %16, i32 noundef 2, i32 noundef %18)
  %20 = load i32, ptr %6, align 4
  %21 = add i32 %20, 2
  store i32 %21, ptr %6, align 4
  %22 = load i32, ptr %6, align 4
  %23 = add i32 %22, 4
  store i32 %23, ptr %6, align 4
  %24 = load ptr, ptr %8, align 8
  %25 = load i32, ptr @hf_spnego_krb5_snd_seq, align 4
  %26 = load ptr, ptr %5, align 8
  %27 = load i32, ptr %6, align 4
  %28 = call ptr @proto_tree_add_item(ptr noundef %24, i32 noundef %25, ptr noundef %26, i32 noundef %27, i32 noundef 8, i32 noundef 0)
  %29 = load i32, ptr %6, align 4
  %30 = add i32 %29, 8
  store i32 %30, ptr %6, align 4
  %31 = load ptr, ptr %8, align 8
  %32 = load i32, ptr @hf_spnego_krb5_sgn_cksum, align 4
  %33 = load ptr, ptr %5, align 8
  %34 = load i32, ptr %6, align 4
  %35 = call ptr @proto_tree_add_item(ptr noundef %31, i32 noundef %32, ptr noundef %33, i32 noundef %34, i32 noundef 8, i32 noundef 0)
  %36 = load i32, ptr %6, align 4
  %37 = add i32 %36, 8
  store i32 %37, ptr %6, align 4
  %38 = load ptr, ptr %5, align 8
  %39 = load i32, ptr %6, align 4
  %40 = call i32 @tvb_reported_length_remaining(ptr noundef %38, i32 noundef %39)
  %41 = icmp ne i32 %40, 0
  br i1 %41, label %42, label %55

42:                                               ; preds = %4
  %43 = load i16, ptr %9, align 2
  %44 = zext i16 %43 to i32
  %45 = icmp eq i32 %44, 17
  br i1 %45, label %46, label %54

46:                                               ; preds = %42
  %47 = load ptr, ptr %8, align 8
  %48 = load i32, ptr @hf_spnego_krb5_confounder, align 4
  %49 = load ptr, ptr %5, align 8
  %50 = load i32, ptr %6, align 4
  %51 = call ptr @proto_tree_add_item(ptr noundef %47, i32 noundef %48, ptr noundef %49, i32 noundef %50, i32 noundef 8, i32 noundef 0)
  %52 = load i32, ptr %6, align 4
  %53 = add i32 %52, 8
  store i32 %53, ptr %6, align 4
  br label %54

54:                                               ; preds = %46, %42
  br label %55

55:                                               ; preds = %54, %4
  %56 = load i32, ptr %6, align 4
  ret i32 %56
}