; Function Attrs: nounwind uwtable
define internal fastcc noundef i32 @dissect_spnego_krb5_getmic_base(ptr noundef %0, i32 noundef %1, ptr noundef %2) unnamed_addr #0 {
  %4 = tail call zeroext i16 @tvb_get_letohs(ptr noundef %0, i32 noundef %1) #6
  %5 = load i32, ptr @hf_spnego_krb5_sgn_alg, align 4
  %6 = zext i16 %4 to i32
  %7 = tail call ptr @proto_tree_add_uint(ptr noundef %2, i32 noundef %5, ptr noundef %0, i32 noundef %1, i32 noundef 2, i32 noundef %6) #6
  %8 = add i32 %1, 6
  %9 = load i32, ptr @hf_spnego_krb5_snd_seq, align 4
  %10 = tail call ptr @proto_tree_add_item(ptr noundef %2, i32 noundef %9, ptr noundef %0, i32 noundef %8, i32 noundef 8, i32 noundef 0) #6
  %11 = add i32 %1, 14
  %12 = load i32, ptr @hf_spnego_krb5_sgn_cksum, align 4
  %13 = tail call ptr @proto_tree_add_item(ptr noundef %2, i32 noundef %12, ptr noundef %0, i32 noundef %11, i32 noundef 8, i32 noundef 0) #6
  %14 = add i32 %1, 22
  %15 = tail call i32 @tvb_reported_length_remaining(ptr noundef %0, i32 noundef %14) #6
  %16 = icmp ne i32 %15, 0
  %17 = icmp eq i16 %4, 17
  %or.cond = and i1 %17, %16
  br i1 %or.cond, label %18, label %22

18:                                               ; preds = %3
  %19 = load i32, ptr @hf_spnego_krb5_confounder, align 4
  %20 = tail call ptr @proto_tree_add_item(ptr noundef %2, i32 noundef %19, ptr noundef %0, i32 noundef %14, i32 noundef 8, i32 noundef 0) #6
  %21 = add i32 %1, 30
  br label %22

22:                                               ; preds = %18, %3
  %.0 = phi i32 [ %21, %18 ], [ %14, %3 ]
  ret i32 %.0
}